target datalayout = "e-m:e-p270:32:32-p271:32:32-p272:64:64-i64:64-i128:128-f80:128-n8:16:32:64-S128"
target triple = "x86_64-pc-linux-gnu"

@NR_OF_TDD_CELLS_map = internal constant <{ [21 x i8], [11 x i8] }> <{ [21 x i8] c"\00\09\11\19 '.5;AGMSY_ejoty~", [11 x i8] zeroinitializer }>, align 16

; Function Attrs: nounwind null_pointer_is_valid sspstrong uwtable
define internal signext i16 @callback_UTRAN_TDD_map_NrOfFrequencies(ptr noundef %0, ptr noundef %1, ptr noundef %2, ptr noundef %3, i32 noundef %4, i32 noundef %5, ptr noundef %6) #4 {
  %8 = alloca ptr, align 8
  %9 = alloca ptr, align 8
  %10 = alloca ptr, align 8
  %11 = alloca ptr, align 8
  %12 = alloca i32, align 4
  %13 = alloca i32, align 4
  %14 = alloca ptr, align 8
  %15 = alloca ptr, align 8
  %16 = alloca ptr, align 8
  store ptr %0, ptr %8, align 8
  store ptr %1, ptr %9, align 8
  store ptr %2, ptr %10, align 8
  store ptr %3, ptr %11, align 8
  store i32 %4, ptr %12, align 4
  store i32 %5, ptr %13, align 4
  store ptr %6, ptr %14, align 8
  call void @llvm.lifetime.start.p0(i64 8, ptr %15) #5
  %17 = load ptr, ptr %10, align 8
  store ptr %17, ptr %15, align 8
  call void @llvm.lifetime.start.p0(i64 8, ptr %16) #5
  %18 = load ptr, ptr %11, align 8
  store ptr %18, ptr %16, align 8
  %19 = load ptr, ptr %15, align 8
  %20 = load i8, ptr %19, align 1
  %21 = zext i8 %20 to i32
  %22 = icmp slt i32 %21, 32
  br i1 %22, label %23, label %30

23:                                               ; preds = %7
  %24 = load ptr, ptr %15, align 8
  %25 = load i8, ptr %24, align 1
  %26 = zext i8 %25 to i64
  %27 = getelementptr [32 x i8], ptr @NR_OF_TDD_CELLS_map, i64 0, i64 %26
  %28 = load i8, ptr %27, align 1
  %29 = load ptr, ptr %16, align 8
  store i8 %28, ptr %29, align 1
  br label %32

30:                                               ; preds = %7
  %31 = load ptr, ptr %16, align 8
  store i8 0, ptr %31, align 1
  br label %32

32:                                               ; preds = %30, %23
  call void @llvm.lifetime.end.p0(i64 8, ptr %16) #5
  call void @llvm.lifetime.end.p0(i64 8, ptr %15) #5
  ret i16 0
}