; Function Attrs: mustprogress nofree norecurse nosync nounwind null_pointer_is_valid sspstrong willreturn memory(argmem: readwrite) uwtable
define internal noundef signext i16 @callback_UTRAN_TDD_map_NrOfFrequencies(ptr readnone captures(none) %0, ptr readnone captures(none) %1, ptr noundef readonly captures(none) %2, ptr noundef writeonly captures(none) initializes((0, 1)) %3, i32 %4, i32 %5, ptr readnone captures(none) %6) #5 {
  %8 = load i8, ptr %2, align 1
  %9 = icmp ult i8 %8, 32
  br i1 %9, label %10, label %14

10:                                               ; preds = %7
  %11 = zext nneg i8 %8 to i64
  %12 = getelementptr [32 x i8], ptr @NR_OF_TDD_CELLS_map, i64 0, i64 %11
  %13 = load i8, ptr %12, align 1
  br label %14

14:                                               ; preds = %7, %10
  %storemerge = phi i8 [ %13, %10 ], [ 0, %7 ]
  store i8 %storemerge, ptr %3, align 1
  ret i16 0
}